target datalayout = "e-m:e-p270:32:32-p271:32:32-p272:64:64-i64:64-i128:128-f80:128-n8:16:32:64-S128"
target triple = "x86_64-pc-linux-gnu"

%class.symbol = type { ptr }
%class.family_manager = type { i32, %class.symbol_table, %class.svector.17 }
%class.symbol_table = type { %class.core_hashtable, %class.vector.14, %class.svector.15 }
%class.core_hashtable = type <{ ptr, i32, i32, i32, [4 x i8] }>
%class.vector.14 = type { ptr }
%class.svector.15 = type { %class.vector.16 }
%class.vector.16 = type { ptr }
%class.svector.17 = type { %class.vector.18 }
%class.vector.18 = type { ptr }
%"struct.symbol_table<int>::key_data" = type <{ %class.symbol, i32, [4 x i8] }>
%"struct.symbol_table<int>::hash_entry" = type { %"struct.symbol_table<int>::key_data" }

; Function Attrs: mustprogress nounwind uwtable
define linkonce_odr hidden noundef nonnull align 8 dereferenceable(12) ptr @_ZN12symbol_tableIiE10hash_entry8get_dataEv(ptr noundef nonnull align 8 dereferenceable(16) %0) #4 comdat align 2 {
  %2 = alloca ptr, align 8
  store ptr %0, ptr %2, align 8, !tbaa !71
  %3 = load ptr, ptr %2, align 8
  %4 = getelementptr inbounds nuw %"struct.symbol_table<int>::hash_entry", ptr %3, i32 0, i32 0
  ret ptr %4
}

; Function Attrs: mustprogress nounwind uwtable
define linkonce_odr hidden void @_ZN12symbol_tableIiE8key_dataC2E6symbol(ptr noundef nonnull align 8 dereferenceable(12) %0, ptr %1) unnamed_addr #4 comdat align 2 {
  %3 = alloca %class.symbol, align 8
  %4 = alloca ptr, align 8
  %5 = getelementptr inbounds nuw %class.symbol, ptr %3, i32 0, i32 0
  store ptr %1, ptr %5, align 8
  store ptr %0, ptr %4, align 8, !tbaa !76
  %6 = load ptr, ptr %4, align 8
  %7 = getelementptr inbounds nuw %"struct.symbol_table<int>::key_data", ptr %6, i32 0, i32 0
  call void @llvm.memcpy.p0.p0.i64(ptr align 8 %7, ptr align 8 %3, i64 8, i1 false), !tbaa.struct !39
  ret void
}

; Function Attrs: mustprogress uwtable
define linkonce_odr hidden noundef zeroext i1 @_ZNK12symbol_tableIiE4findE6symbolRi(ptr noundef nonnull align 8 dereferenceable(40) %0, ptr %1, ptr noundef nonnull align 4 dereferenceable(4) %2) #6 comdat align 2 {
  %4 = alloca i1, align 1
  %5 = alloca %class.symbol, align 8
  %6 = alloca ptr, align 8
  %7 = alloca ptr, align 8
  %8 = alloca %"struct.symbol_table<int>::key_data", align 8
  %9 = alloca %class.symbol, align 8
  %10 = alloca ptr, align 8
  %11 = alloca i32, align 4
  %12 = getelementptr inbounds nuw %class.symbol, ptr %5, i32 0, i32 0
  store ptr %1, ptr %12, align 8
  store ptr %0, ptr %6, align 8, !tbaa !68
  store ptr %2, ptr %7, align 8, !tbaa !70
  %13 = load ptr, ptr %6, align 8
  call void @llvm.lifetime.start.p0(i64 16, ptr %8) #3
  call void @llvm.memcpy.p0.p0.i64(ptr align 8 %9, ptr align 8 %5, i64 8, i1 false), !tbaa.struct !39
  %14 = getelementptr inbounds nuw %class.symbol, ptr %9, i32 0, i32 0
  %15 = load ptr, ptr %14, align 8
  call void @_ZN12symbol_tableIiE8key_dataC2E6symbol(ptr noundef nonnull align 8 dereferenceable(12) %8, ptr %15)
  call void @llvm.lifetime.start.p0(i64 8, ptr %10) #3
  %16 = getelementptr inbounds nuw %class.symbol_table, ptr %13, i32 0, i32 0
  %17 = call noundef ptr @_ZNK14core_hashtableIN12symbol_tableIiE10hash_entryENS1_18key_data_hash_procENS1_16key_data_eq_procEE9find_coreERKNS1_8key_dataE(ptr noundef nonnull align 8 dereferenceable(20) %16, ptr noundef nonnull align 8 dereferenceable(12) %8)
  store ptr %17, ptr %10, align 8, !tbaa !71
  %18 = load ptr, ptr %10, align 8, !tbaa !71
  %19 = icmp eq ptr %18, null
  br i1 %19, label %20, label %21

20:                                               ; preds = %3
  store i1 false, ptr %4, align 1
  store i32 1, ptr %11, align 4
  br label %27

21:                                               ; preds = %3
  %22 = load ptr, ptr %10, align 8, !tbaa !71
  %23 = call noundef nonnull align 8 dereferenceable(12) ptr @_ZN12symbol_tableIiE10hash_entry8get_dataEv(ptr noundef nonnull align 8 dereferenceable(16) %22)
  %24 = getelementptr inbounds nuw %"struct.symbol_table<int>::key_data", ptr %23, i32 0, i32 1
  %25 = load i32, ptr %24, align 8, !tbaa !72
  %26 = load ptr, ptr %7, align 8, !tbaa !70
  store i32 %25, ptr %26, align 4, !tbaa !25
  store i1 true, ptr %4, align 1
  store i32 1, ptr %11, align 4
  br label %27

27:                                               ; preds = %21, %20
  call void @llvm.lifetime.end.p0(i64 8, ptr %10) #3
  call void @llvm.lifetime.end.p0(i64 16, ptr %8) #3
  %28 = load i1, ptr %4, align 1
  ret i1 %28
}

; Function Attrs: mustprogress uwtable
define hidden noundef i32 @_ZNK14family_manager13get_family_idERK6symbol(ptr noundef nonnull align 8 dereferenceable(56) %0, ptr noundef nonnull align 8 dereferenceable(8) %1) #6 align 2 {
  %3 = alloca i32, align 4
  %4 = alloca ptr, align 8
  %5 = alloca ptr, align 8
  %6 = alloca i32, align 4
  %7 = alloca %class.symbol, align 8
  %8 = alloca i32, align 4
  store ptr %0, ptr %4, align 8, !tbaa !54
  store ptr %1, ptr %5, align 8, !tbaa !42
  %9 = load ptr, ptr %4, align 8
  call void @llvm.lifetime.start.p0(i64 4, ptr %6) #3
  %10 = getelementptr inbounds nuw %class.family_manager, ptr %9, i32 0, i32 1
  %11 = load ptr, ptr %5, align 8, !tbaa !42
  call void @llvm.memcpy.p0.p0.i64(ptr align 8 %7, ptr align 8 %11, i64 8, i1 false), !tbaa.struct !39
  %12 = getelementptr inbounds nuw %class.symbol, ptr %7, i32 0, i32 0
  %13 = load ptr, ptr %12, align 8
  %14 = call noundef zeroext i1 @_ZNK12symbol_tableIiE4findE6symbolRi(ptr noundef nonnull align 8 dereferenceable(40) %10, ptr %13, ptr noundef nonnull align 4 dereferenceable(4) %6)
  br i1 %14, label %15, label %17

15:                                               ; preds = %2
  %16 = load i32, ptr %6, align 4, !tbaa !25
  store i32 %16, ptr %3, align 4
  store i32 1, ptr %8, align 4
  br label %18

17:                                               ; preds = %2
  store i32 -1, ptr %3, align 4
  store i32 1, ptr %8, align 4
  br label %18

18:                                               ; preds = %17, %15
  call void @llvm.lifetime.end.p0(i64 4, ptr %6) #3
  %19 = load i32, ptr %3, align 4
  ret i32 %19
}