; Function Attrs: mustprogress uwtable
define hidden noundef i32 @_ZNK14family_manager13get_family_idERK6symbol(ptr noundef nonnull align 8 dereferenceable(56) %0, ptr noundef nonnull readonly align 8 captures(none) dereferenceable(8) %1) local_unnamed_addr #7 align 2 {
  %3 = alloca %"struct.symbol_table<int>::key_data", align 8
  %4 = getelementptr inbounds nuw i8, ptr %0, i64 8
  %.sroa.0.0.copyload = load ptr, ptr %1, align 8, !tbaa !50
  call void @llvm.lifetime.start.p0(i64 16, ptr nonnull %3) #38
  store ptr %.sroa.0.0.copyload, ptr %3, align 8, !tbaa !50
  %5 = call noundef ptr @_ZNK14core_hashtableIN12symbol_tableIiE10hash_entryENS1_18key_data_hash_procENS1_16key_data_eq_procEE9find_coreERKNS1_8key_dataE(ptr noundef nonnull align 8 dereferenceable(40) %4, ptr noundef nonnull align 8 dereferenceable(12) %3)
  %.not = icmp eq ptr %5, null
  br i1 %.not, label %_ZNK12symbol_tableIiE4findE6symbolRi.exit, label %6

6:                                                ; preds = %2
  %7 = getelementptr inbounds nuw i8, ptr %5, i64 8
  %8 = load i32, ptr %7, align 8, !tbaa !75
  br label %_ZNK12symbol_tableIiE4findE6symbolRi.exit

_ZNK12symbol_tableIiE4findE6symbolRi.exit:        ; preds = %2, %6
  %.0 = phi i32 [ %8, %6 ], [ -1, %2 ]
  call void @llvm.lifetime.end.p0(i64 16, ptr nonnull %3) #38
  ret i32 %.0
}